(dp1
S'url'
p2
S'https://wsaahomo.afip.gov.ar/ws/services/LoginCms?wsdl'
p3
sS'services'
p4
(dp5
VLoginCMSService
p6
(dp7
S'documentation'
p8
S''
sS'ports'
p9
(dp10
VLoginCms
p11
(dp12
S'port_type_name'
p13
S'LoginCMS'
p14
sS'operations'
p15
(dp16
VloginCms
p17
(dp18
S'name'
p19
g17
sg8
V
sS'header'
p20
NsS'parts'
p21
(dp22
S'input_header'
p23
NsS'input_body'
p24
NsS'output_header'
p25
NsS'output_body'
p26
NssS'output'
p27
(dp28
S'loginCmsResponse'
p29
ccopy_reg
_reconstructor
p30
(cpysimplesoap.simplexml
OrderedDict
p31
c__builtin__
dict
p32
(dp33
VloginCmsReturn
p34
c__builtin__
unicode
p35
stRp36
(dp37
S'array'
p38
I00
sS'_OrderedDict__keys'
p39
(lp40
g34
asbssS'input'
p41
(dp42
S'loginCms'
p43
g30
(g31
g32
(dp44
Vin0
p45
g35
stRp46
(dp47
g38
I00
sg39
(lp48
g45
asbssssS'location'
p49
Vhttps://wsaahomo.afip.gov.ar/ws/services/LoginCms
p50
sS'service_name'
p51
g6
sS'soap_uri'
p52
Vhttp://schemas.xmlsoap.org/wsdl/soap/
p53
sS'soap_ver'
p54
S'soap11'
p55
sS'transport'
p56
Vhttp://schemas.xmlsoap.org/soap/http
p57
sssssS'version'
p58
S'1.08b'
p59
sS'namespace'
p60
Vhttp://wsaa.view.sua.dvadac.desein.afip.gov
p61
sg8
V
s.