(dp1
S'url'
p2
S'https://fwshomo.afip.gov.ar/wsmtxca/services/MTXCAService?wsdl'
p3
sS'services'
p4
(dp5
VMTXCAService
p6
(dp7
S'documentation'
p8
S''
sS'ports'
p9
(dp10
VMTXCAServiceHttpSoap11Endpoint
p11
(dp12
S'port_type_name'
p13
S'MTXCAServicePortType'
p14
sS'operations'
p15
(dp16
VconsultarPuntosVenta
p17
(dp18
S'name'
p19
g17
sg8
V
sS'header'
p20
NsS'parts'
p21
(dp22
S'input_header'
p23
NsS'input_body'
p24
NsS'output_header'
p25
NsS'output_body'
p26
NssS'output'
p27
(dp28
S'consultarPuntosVentaResponse'
p29
ccopy_reg
_reconstructor
p30
(cpysimplesoap.simplexml
OrderedDict
p31
c__builtin__
dict
p32
(dp33
Vevento
p34
g30
(g31
g32
(dp35
Vdescripcion
p36
c__builtin__
unicode
p37
sVcodigo
p38
g30
(cpysimplesoap.simplexml
Alias
p39
c__builtin__
object
p40
NtRp41
(dp42
S'py_type'
p43
c__builtin__
int
p44
sS'xml_type'
p45
S'short'
p46
sbstRp47
(dp48
S'array'
p49
I00
sS'_OrderedDict__keys'
p50
(lp51
g38
ag36
asbsVarrayPuntosVenta
p52
(lp53
g30
(g31
g32
(dp54
VpuntoVenta
p55
g30
(g31
g32
(dp56
VfechaBaja
p57
cdatetime
date
p58
sVnumeroPuntoVenta
p59
g41
sVbloqueado
p60
g37
stRp61
(dp62
g49
I00
sg50
(lp63
g59
ag60
ag57
asbstRp64
(dp65
g49
I01
sg50
(lp66
g55
asbastRp67
(dp68
g49
I00
sg50
(lp69
g52
ag34
asbssS'action'
p70
Vhttp://impl.service.wsmtxca.afip.gov.ar/service/consultarPuntosVenta
p71
sS'input'
p72
(dp73
S'consultarPuntosVentaRequest'
p74
g30
(g31
g32
(dp75
VauthRequest
p76
g30
(g31
g32
(dp77
Vtoken
p78
g37
sVcuitRepresentada
p79
c__builtin__
long
p80
sVsign
p81
g37
stRp82
(dp83
g49
I00
sg50
(lp84
g78
ag81
ag79
asbstRp85
(dp86
g49
I00
sg50
(lp87
g76
asbsssVconsultarCAEAEntreFechas
p88
(dp89
g19
g88
sg8
V
sg20
Nsg21
(dp90
g23
Nsg24
Nsg25
Nsg26
Nssg27
(dp91
S'consultarCAEAEntreFechasResponse'
p92
g30
(g31
g32
(dp93
Vevento
p94
g47
sVarrayErrores
p95
(lp96
g30
(g31
g32
(dp97
VcodigoDescripcion
p98
g47
stRp99
(dp100
g49
I01
sg50
(lp101
g98
asbasVarrayCAEAResponse
p102
(lp103
g30
(g31
g32
(dp104
VCAEAResponse
p105
g30
(g31
g32
(dp106
Vorden
p107
g41
sVfechaDesde
p108
g58
sVfechaTopeInforme
p109
g58
sVfechaHasta
p110
g58
sVfechaProceso
p111
g58
sVperiodo
p112
g44
sVCAEA
p113
g80
stRp114
(dp115
g49
I00
sg50
(lp116
g111
ag113
ag112
ag107
ag108
ag110
ag109
asbstRp117
(dp118
g49
I01
sg50
(lp119
g105
asbastRp120
(dp121
g49
I00
sg50
(lp122
g102
ag95
ag94
asbssg70
Vhttp://impl.service.wsmtxca.afip.gov.ar/service/consultarCAEAEntreFechas
p123
sg72
(dp124
S'consultarCAEAEntreFechasRequest'
p125
g30
(g31
g32
(dp126
VfechaDesde
p127
g58
sVauthRequest
p128
g82
sVfechaHasta
p129
g58
stRp130
(dp131
g49
I00
sg50
(lp132
g128
ag127
ag129
asbsssVconsultarCAEA
p133
(dp134
g19
g133
sg8
V
sg20
Nsg21
(dp135
g23
Nsg24
Nsg25
Nsg26
Nssg27
(dp136
S'consultarCAEAResponse'
p137
g30
(g31
g32
(dp138
Vevento
p139
g47
sVCAEAResponse
p140
g114
sVarrayErrores
p141
(lp142
g99
astRp143
(dp144
g49
I00
sg50
(lp145
g140
ag141
ag139
asbssg70
Vhttp://impl.service.wsmtxca.afip.gov.ar/service/consultarCAEA
p146
sg72
(dp147
S'consultarCAEARequest'
p148
g30
(g31
g32
(dp149
VCAEA
p150
g80
sVauthRequest
p151
g82
stRp152
(dp153
g49
I00
sg50
(lp154
g151
ag150
asbsssVinformarAjusteIVACAEA
p155
(dp156
g19
g155
sg8
V
sg20
Nsg21
(dp157
g23
Nsg24
Nsg25
Nsg26
Nssg27
(dp158
S'informarAjusteIVACAEAResponse'
p159
g30
(g31
g32
(dp160
VarrayObservaciones
p161
(lp162
g99
asVevento
p163
g47
sVresultado
p164
g37
sVfechaProceso
p165
g58
sVarrayErrores
p166
(lp167
g99
asVcomprobanteCAEAResponse
p168
g30
(g31
g32
(dp169
VCAEA
p170
g80
sVnumeroComprobante
p171
g80
sVnumeroPuntoVenta
p172
g41
sVcodigoTipoComprobante
p173
g41
stRp174
(dp175
g49
I00
sg50
(lp176
g170
ag173
ag172
ag171
asbstRp177
(dp178
g49
I00
sg50
(lp179
g164
ag165
ag168
ag161
ag166
ag163
asbssg70
Vhttp://impl.service.wsmtxca.afip.gov.ar/service/informarAjusteIVACAEA
p180
sg72
(dp181
S'informarAjusteIVACAEARequest'
p182
g30
(g31
g32
(dp183
VcomprobanteCAEARequest
p184
g30
(g31
g32
(dp185
VcodigoConcepto
p186
g41
sVfechaEmision
p187
g58
sVarrayOtrosTributos
p188
(lp189
g30
(g31
g32
(dp190
VotroTributo
p191
g30
(g31
g32
(dp192
Vdescripcion
p193
g37
sVbaseImponible
p194
cdecimal
Decimal
p195
sVcodigo
p196
g41
sVimporte
p197
g195
stRp198
(dp199
g49
I00
sg50
(lp200
g196
ag193
ag194
ag197
asbstRp201
(dp202
g49
I01
sg50
(lp203
g191
asbasVimporteSubtotal
p204
g195
sVarrayDatosAdicionales
p205
(lp206
g30
(g31
g32
(dp207
VdatoAdicional
p208
g30
(g31
g32
(dp209
Vt
g41
sVc3
p210
g37
sVc2
p211
g37
sVc1
p212
g37
sVc6
p213
g37
sVc5
p214
g37
sVc4
p215
g37
stRp216
(dp217
g49
I00
sg50
(lp218
Vt
ag212
ag211
ag210
ag215
ag214
ag213
asbstRp219
(dp220
g49
I01
sg50
(lp221
g208
asbasVobservaciones
p222
g37
sVimporteNoGravado
p223
g195
sVcodigoTipoComprobante
p224
g41
sVimporteExento
p225
g195
sVarraySubtotalesIVA
p226
(lp227
g30
(g31
g32
(dp228
VsubtotalIVA
p229
g30
(g31
g32
(dp230
Vcodigo
p231
g41
sVimporte
p232
g195
stRp233
(dp234
g49
I00
sg50
(lp235
g231
ag232
asbstRp236
(dp237
g49
I01
sg50
(lp238
g229
asbasVimporteGravado
p239
g195
sVfechaServicioHasta
p240
g58
sVfechaVencimiento
p241
g58
sVnumeroDocumento
p242
g80
sVfechaServicioDesde
p243
g58
sVnumeroComprobante
p244
g80
sVnumeroPuntoVenta
p245
g41
sVfechaVencimientoPago
p246
g58
sVcodigoTipoAutorizacion
p247
g37
sVimporteOtrosTributos
p248
g195
sVimporteTotal
p249
g195
sVcodigoMoneda
p250
g37
sVcotizacionMoneda
p251
g195
sVcodigoTipoDocumento
p252
g41
sVcodigoAutorizacion
p253
g80
sVarrayComprobantesAsociados
p254
(lp255
g30
(g31
g32
(dp256
VcomprobanteAsociado
p257
g30
(g31
g32
(dp258
VnumeroComprobante
p259
g80
sVnumeroPuntoVenta
p260
g41
sVcodigoTipoComprobante
p261
g41
stRp262
(dp263
g49
I00
sg50
(lp264
g261
ag260
ag259
asbstRp265
(dp266
g49
I01
sg50
(lp267
g257
asbasVarrayItems
p268
(lp269
g30
(g31
g32
(dp270
Vitem
p271
g30
(g31
g32
(dp272
VunidadesMtx
p273
g44
sVcodigo
p274
g37
sVcantidad
p275
g195
sVimporteItem
p276
g195
sVimporteBonificacion
p277
g195
sVcodigoUnidadMedida
p278
g41
sVimporteIVA
p279
g195
sVprecioUnitario
p280
g195
sVdescripcion
p281
g37
sVcodigoCondicionIVA
p282
g41
sVcodigoMtx
p283
g37
stRp284
(dp285
g49
I00
sg50
(lp286
g273
ag283
ag274
ag281
ag275
ag278
ag280
ag277
ag282
ag279
ag276
asbstRp287
(dp288
g49
I01
sg50
(lp289
g271
asbastRp290
(dp291
g49
I00
sg50
(lp292
g224
ag245
ag244
ag187
ag247
ag253
ag241
ag252
ag242
ag239
ag223
ag225
ag204
ag248
ag249
ag250
ag251
ag222
ag186
ag243
ag240
ag246
ag254
ag188
ag268
ag226
ag205
asbsVauthRequest
p293
g82
stRp294
(dp295
g49
I00
sg50
(lp296
g293
ag184
asbsssVconsultarMonedas
p297
(dp298
g19
g297
sg8
V
sg20
Nsg21
(dp299
g23
Nsg24
Nsg25
Nsg26
Nssg27
(dp300
S'consultarMonedasResponse'
p301
g30
(g31
g32
(dp302
Vevento
p303
g47
sVarrayMonedas
p304
(lp305
g30
(g31
g32
(dp306
VcodigoDescripcion
p307
g30
(g31
g32
(dp308
Vdescripcion
p309
g37
sVcodigo
p310
g37
stRp311
(dp312
g49
I00
sg50
(lp313
g310
ag309
asbstRp314
(dp315
g49
I01
sg50
(lp316
g307
asbastRp317
(dp318
g49
I00
sg50
(lp319
g304
ag303
asbssg70
Vhttp://impl.service.wsmtxca.afip.gov.ar/service/consultarMonedas
p320
sg72
(dp321
S'consultarMonedasRequest'
p322
g30
(g31
g32
(dp323
VauthRequest
p324
g82
stRp325
(dp326
g49
I00
sg50
(lp327
g324
asbsssVconsultarTiposDocumento
p328
(dp329
g19
g328
sg8
V
sg20
Nsg21
(dp330
g23
Nsg24
Nsg25
Nsg26
Nssg27
(dp331
S'consultarTiposDocumentoResponse'
p332
g30
(g31
g32
(dp333
VarrayTiposDocumento
p334
(lp335
g99
asVevento
p336
g47
stRp337
(dp338
g49
I00
sg50
(lp339
g334
ag336
asbssg70
Vhttp://impl.service.wsmtxca.afip.gov.ar/service/consultarTiposDocumento
p340
sg72
(dp341
S'consultarTiposDocumentoRequest'
p342
g30
(g31
g32
(dp343
VauthRequest
p344
g82
stRp345
(dp346
g49
I00
sg50
(lp347
g344
asbsssVconsultarUnidadesMedida
p348
(dp349
g19
g348
sg8
V
sg20
Nsg21
(dp350
g23
Nsg24
Nsg25
Nsg26
Nssg27
(dp351
S'consultarUnidadesMedidaResponse'
p352
g30
(g31
g32
(dp353
Vevento
p354
g47
sVarrayUnidadesMedida
p355
(lp356
g99
astRp357
(dp358
g49
I00
sg50
(lp359
g355
ag354
asbssg70
Vhttp://impl.service.wsmtxca.afip.gov.ar/service/consultarUnidadesMedida
p360
sg72
(dp361
S'consultarUnidadesMedidaRequest'
p362
g30
(g31
g32
(dp363
VauthRequest
p364
g82
stRp365
(dp366
g49
I00
sg50
(lp367
g364
asbsssVconsultarUltimoComprobanteAutorizado
p368
(dp369
g19
g368
sg8
V
sg20
Nsg21
(dp370
g23
Nsg24
Nsg25
Nsg26
Nssg27
(dp371
S'consultarUltimoComprobanteAutorizadoResponse'
p372
g30
(g31
g32
(dp373
Vevento
p374
g47
sVnumeroComprobante
p375
g80
sVarrayErrores
p376
(lp377
g99
astRp378
(dp379
g49
I00
sg50
(lp380
g375
ag376
ag374
asbssg70
Vhttp://impl.service.wsmtxca.afip.gov.ar/service/consultarUltimoComprobanteAutorizado
p381
sg72
(dp382
S'consultarUltimoComprobanteAutorizadoRequest'
p383
g30
(g31
g32
(dp384
VauthRequest
p385
g82
sVconsultaUltimoComprobanteAutorizadoRequest
p386
g30
(g31
g32
(dp387
VnumeroPuntoVenta
p388
g41
sVcodigoTipoComprobante
p389
g41
stRp390
(dp391
g49
I00
sg50
(lp392
g389
ag388
asbstRp393
(dp394
g49
I00
sg50
(lp395
g385
ag386
asbsssVconsultarAlicuotasIVA
p396
(dp397
g19
g396
sg8
V
sg20
Nsg21
(dp398
g23
Nsg24
Nsg25
Nsg26
Nssg27
(dp399
S'consultarAlicuotasIVAResponse'
p400
g30
(g31
g32
(dp401
Vevento
p402
g47
sVarrayAlicuotasIVA
p403
(lp404
g99
astRp405
(dp406
g49
I00
sg50
(lp407
g403
ag402
asbssg70
Vhttp://impl.service.wsmtxca.afip.gov.ar/service/consultarAlicuotasIVA
p408
sg72
(dp409
S'consultarAlicuotasIVARequest'
p410
g30
(g31
g32
(dp411
VauthRequest
p412
g82
stRp413
(dp414
g49
I00
sg50
(lp415
g412
asbsssVautorizarAjusteIVA
p416
(dp417
g19
g416
sg8
V
sg20
Nsg21
(dp418
g23
Nsg24
Nsg25
Nsg26
Nssg27
(dp419
S'autorizarAjusteIVAResponse'
p420
g30
(g31
g32
(dp421
VarrayObservaciones
p422
(lp423
g99
asVevento
p424
g47
sVresultado
p425
g37
sVarrayErrores
p426
(lp427
g99
asVcomprobanteResponse
p428
g30
(g31
g32
(dp429
VfechaEmision
p430
g58
sVnumeroComprobante
p431
g80
sVnumeroPuntoVenta
p432
g41
sVCAE
p433
g80
sVcuit
p434
g80
sVfechaVencimientoCAE
p435
g58
sVcodigoTipoComprobante
p436
g41
stRp437
(dp438
g49
I00
sg50
(lp439
g434
ag436
ag432
ag431
ag430
ag433
ag435
asbstRp440
(dp441
g49
I00
sg50
(lp442
g425
ag428
ag422
ag426
ag424
asbssg70
Vhttp://impl.service.wsmtxca.afip.gov.ar/service/autorizarAjusteIVA
p443
sg72
(dp444
S'autorizarAjusteIVARequest'
p445
g30
(g31
g32
(dp446
VauthRequest
p447
g82
sVcomprobanteCAERequest
p448
g290
stRp449
(dp450
g49
I00
sg50
(lp451
g447
ag448
asbsssVconsultarCondicionesIVA
p452
(dp453
g19
g452
sg8
V
sg20
Nsg21
(dp454
g23
Nsg24
Nsg25
Nsg26
Nssg27
(dp455
S'consultarCondicionesIVAResponse'
p456
g30
(g31
g32
(dp457
VarrayCondicionesIVA
p458
(lp459
g99
asVevento
p460
g47
stRp461
(dp462
g49
I00
sg50
(lp463
g458
ag460
asbssg70
Vhttp://impl.service.wsmtxca.afip.gov.ar/service/consultarCondicionesIVA
p464
sg72
(dp465
S'consultarCondicionesIVARequest'
p466
g30
(g31
g32
(dp467
VauthRequest
p468
g82
stRp469
(dp470
g49
I00
sg50
(lp471
g468
asbsssVinformarComprobanteCAEA
p472
(dp473
g19
g472
sg8
V
sg20
Nsg21
(dp474
g23
Nsg24
Nsg25
Nsg26
Nssg27
(dp475
S'informarComprobanteCAEAResponse'
p476
g30
(g31
g32
(dp477
VarrayObservaciones
p478
(lp479
g99
asVevento
p480
g47
sVresultado
p481
g37
sVfechaProceso
p482
g58
sVarrayErrores
p483
(lp484
g99
asVcomprobanteCAEAResponse
p485
g174
stRp486
(dp487
g49
I00
sg50
(lp488
g481
ag482
ag485
ag478
ag483
ag480
asbssg70
Vhttp://impl.service.wsmtxca.afip.gov.ar/service/informarComprobanteCAEA
p489
sg72
(dp490
S'informarComprobanteCAEARequest'
p491
g30
(g31
g32
(dp492
VcomprobanteCAEARequest
p493
g290
sVauthRequest
p494
g82
stRp495
(dp496
g49
I00
sg50
(lp497
g494
ag493
asbsssVconsultarTiposComprobante
p498
(dp499
g19
g498
sg8
V
sg20
Nsg21
(dp500
g23
Nsg24
Nsg25
Nsg26
Nssg27
(dp501
S'consultarTiposComprobanteResponse'
p502
g30
(g31
g32
(dp503
Vevento
p504
g47
sVarrayTiposComprobante
p505
(lp506
g99
astRp507
(dp508
g49
I00
sg50
(lp509
g505
ag504
asbssg70
Vhttp://impl.service.wsmtxca.afip.gov.ar/service/consultarTiposComprobante
p510
sg72
(dp511
S'consultarTiposComprobanteRequest'
p512
g30
(g31
g32
(dp513
VauthRequest
p514
g82
stRp515
(dp516
g49
I00
sg50
(lp517
g514
asbsssVautorizarComprobante
p518
(dp519
g19
g518
sg8
V
sg20
Nsg21
(dp520
g23
Nsg24
Nsg25
Nsg26
Nssg27
(dp521
S'autorizarComprobanteResponse'
p522
g30
(g31
g32
(dp523
VarrayObservaciones
p524
(lp525
g99
asVevento
p526
g47
sVresultado
p527
g37
sVarrayErrores
p528
(lp529
g99
asVcomprobanteResponse
p530
g437
stRp531
(dp532
g49
I00
sg50
(lp533
g527
ag530
ag524
ag528
ag526
asbssg70
Vhttp://impl.service.wsmtxca.afip.gov.ar/service/autorizarComprobante
p534
sg72
(dp535
S'autorizarComprobanteRequest'
p536
g30
(g31
g32
(dp537
VauthRequest
p538
g82
sVcomprobanteCAERequest
p539
g290
stRp540
(dp541
g49
I00
sg50
(lp542
g538
ag539
asbsssVconsultarPuntosVentaCAEA
p543
(dp544
g19
g543
sg8
V
sg20
Nsg21
(dp545
g23
Nsg24
Nsg25
Nsg26
Nssg27
(dp546
S'consultarPuntosVentaCAEAResponse'
p547
g30
(g31
g32
(dp548
g34
g47
sg52
g53
stRp549
(dp550
g49
I00
sg50
(lp551
g52
ag34
asbssg70
Vhttp://impl.service.wsmtxca.afip.gov.ar/service/consultarPuntosVentaCAEA
p552
sg72
(dp553
S'consultarPuntosVentaCAEARequest'
p554
g30
(g31
g32
(dp555
VauthRequest
p556
g82
stRp557
(dp558
g49
I00
sg50
(lp559
g556
asbsssVinformarCAEANoUtilizadoPtoVta
p560
(dp561
g19
g560
sg8
V
sg20
Nsg21
(dp562
g23
Nsg24
Nsg25
Nsg26
Nssg27
(dp563
S'informarCAEANoUtilizadoPtoVtaResponse'
p564
g30
(g31
g32
(dp565
Vevento
p566
g47
sVresultado
p567
g37
sVnumeroPuntoVenta
p568
g41
sVfechaProceso
p569
g58
sVarrayErrores
p570
(lp571
g99
asVCAEA
p572
g80
stRp573
(dp574
g49
I00
sg50
(lp575
g567
ag569
ag572
ag568
ag570
ag566
asbssg70
Vhttp://impl.service.wsmtxca.afip.gov.ar/service/informarCAEANoUtilizadoPtoVta
p576
sg72
(dp577
S'informarCAEANoUtilizadoPtoVtaRequest'
p578
g30
(g31
g32
(dp579
VCAEA
p580
g80
sVnumeroPuntoVenta
p581
g41
sVauthRequest
p582
g82
stRp583
(dp584
g49
I00
sg50
(lp585
g582
ag580
ag581
asbsssVdummy
p586
(dp587
g19
g586
sg8
V
sg20
Nsg21
(dp588
g23
Nsg24
Nsg25
Nsg26
Nssg27
(dp589
S'dummyResponse'
p590
g30
(g31
g32
(dp591
Vappserver
p592
g37
sVauthserver
p593
g37
sVdbserver
p594
g37
stRp595
(dp596
g49
I00
sg50
(lp597
g592
ag593
ag594
asbssg70
Vhttp://impl.service.wsmtxca.afip.gov.ar/service/dummy
p598
sg72
NssVconsultarCotizacionMoneda
p599
(dp600
g19
g599
sg8
V
sg20
Nsg21
(dp601
g23
Nsg24
Nsg25
Nsg26
Nssg27
(dp602
S'consultarCotizacionMonedaResponse'
p603
g30
(g31
g32
(dp604
Vevento
p605
g47
sVarrayErrores
p606
(lp607
g99
asVcotizacionMoneda
p608
g195
stRp609
(dp610
g49
I00
sg50
(lp611
g608
ag606
ag605
asbssg70
Vhttp://impl.service.wsmtxca.afip.gov.ar/service/consultarCotizacionMoneda
p612
sg72
(dp613
S'consultarCotizacionMonedaRequest'
p614
g30
(g31
g32
(dp615
VauthRequest
p616
g82
sVcodigoMoneda
p617
g37
stRp618
(dp619
g49
I00
sg50
(lp620
g616
ag617
asbsssVsolicitarCAEA
p621
(dp622
g19
g621
sg8
V
sg20
Nsg21
(dp623
g23
Nsg24
Nsg25
Nsg26
Nssg27
(dp624
S'solicitarCAEAResponse'
p625
g30
(g31
g32
(dp626
Vevento
p627
g47
sVCAEAResponse
p628
g114
sVarrayErrores
p629
(lp630
g99
astRp631
(dp632
g49
I00
sg50
(lp633
g628
ag629
ag627
asbssg70
Vhttp://impl.service.wsmtxca.afip.gov.ar/service/solicitarCAEA
p634
sg72
(dp635
S'solicitarCAEARequest'
p636
g30
(g31
g32
(dp637
VauthRequest
p638
g82
sVsolicitudCAEA
p639
g30
(g31
g32
(dp640
Vperiodo
p641
g44
sVorden
p642
g41
stRp643
(dp644
g49
I00
sg50
(lp645
g641
ag642
asbstRp646
(dp647
g49
I00
sg50
(lp648
g638
ag639
asbsssVconsultarTiposTributo
p649
(dp650
g19
g649
sg8
V
sg20
Nsg21
(dp651
g23
Nsg24
Nsg25
Nsg26
Nssg27
(dp652
S'consultarTiposTributoResponse'
p653
g30
(g31
g32
(dp654
Vevento
p655
g47
sVarrayTiposTributo
p656
(lp657
g99
astRp658
(dp659
g49
I00
sg50
(lp660
g656
ag655
asbssg70
Vhttp://impl.service.wsmtxca.afip.gov.ar/service/consultarTiposTributo
p661
sg72
(dp662
S'consultarTiposTributoRequest'
p663
g30
(g31
g32
(dp664
VauthRequest
p665
g82
stRp666
(dp667
g49
I00
sg50
(lp668
g665
asbsssVconsultarPtosVtaCAEANoInformados
p669
(dp670
g19
g669
sg8
V
sg20
Nsg21
(dp671
g23
Nsg24
Nsg25
Nsg26
Nssg27
(dp672
S'consultarPtosVtaCAEANoInformadosResponse'
p673
g30
(g31
g32
(dp674
Vevento
p675
g47
sVarrayErrores
p676
(lp677
g99
asVarrayPuntosVenta
p678
(lp679
g64
astRp680
(dp681
g49
I00
sg50
(lp682
g678
ag676
ag675
asbssg70
Vhttp://impl.service.wsmtxca.afip.gov.ar/service/consultarPtosVtaCAEANoInformados
p683
sg72
(dp684
S'consultarPtosVtaCAEANoInformadosRequest'
p685
g30
(g31
g32
(dp686
VCAEA
p687
g80
sVauthRequest
p688
g82
stRp689
(dp690
g49
I00
sg50
(lp691
g688
ag687
asbsssVinformarCAEANoUtilizado
p692
(dp693
g19
g692
sg8
V
sg20
Nsg21
(dp694
g23
Nsg24
Nsg25
Nsg26
Nssg27
(dp695
S'informarCAEANoUtilizadoResponse'
p696
g30
(g31
g32
(dp697
Vevento
p698
g47
sVresultado
p699
g37
sVarrayErrores
p700
(lp701
g99
asVCAEA
p702
g80
sVfechaProceso
p703
g58
stRp704
(dp705
g49
I00
sg50
(lp706
g699
ag703
ag702
ag700
ag698
asbssg70
Vhttp://impl.service.wsmtxca.afip.gov.ar/service/informarCAEANoUtilizado
p707
sg72
(dp708
S'informarCAEANoUtilizadoRequest'
p709
g30
(g31
g32
(dp710
VCAEA
p711
g80
sVauthRequest
p712
g82
stRp713
(dp714
g49
I00
sg50
(lp715
g712
ag711
asbsssVconsultarPuntosVentaCAE
p716
(dp717
g19
g716
sg8
V
sg20
Nsg21
(dp718
g23
Nsg24
Nsg25
Nsg26
Nssg27
(dp719
S'consultarPuntosVentaCAEResponse'
p720
g30
(g31
g32
(dp721
g34
g47
sg52
g53
stRp722
(dp723
g49
I00
sg50
(lp724
g52
ag34
asbssg70
Vhttp://impl.service.wsmtxca.afip.gov.ar/service/consultarPuntosVentaCAE
p725
sg72
(dp726
S'consultarPuntosVentaCAERequest'
p727
g30
(g31
g32
(dp728
VauthRequest
p729
g82
stRp730
(dp731
g49
I00
sg50
(lp732
g729
asbsssVconsultarComprobante
p733
(dp734
g19
g733
sg8
V
sg20
Nsg21
(dp735
g23
Nsg24
Nsg25
Nsg26
Nssg27
(dp736
S'consultarComprobanteResponse'
p737
g30
(g31
g32
(dp738
VarrayObservaciones
p739
(lp740
g99
asVcomprobante
p741
g290
sVarrayErrores
p742
(lp743
g99
asVevento
p744
g47
stRp745
(dp746
g49
I00
sg50
(lp747
g741
ag739
ag742
ag744
asbssg70
Vhttp://impl.service.wsmtxca.afip.gov.ar/service/consultarComprobante
p748
sg72
(dp749
S'consultarComprobanteRequest'
p750
g30
(g31
g32
(dp751
VauthRequest
p752
g82
sVconsultaComprobanteRequest
p753
g30
(g31
g32
(dp754
VnumeroComprobante
p755
g80
sVnumeroPuntoVenta
p756
g41
sVcodigoTipoComprobante
p757
g41
stRp758
(dp759
g49
I00
sg50
(lp760
g757
ag756
ag755
asbstRp761
(dp762
g49
I00
sg50
(lp763
g752
ag753
asbsssVconsultarTiposDatosAdicionales
p764
(dp765
g19
g764
sg8
V
sg20
Nsg21
(dp766
g23
Nsg24
Nsg25
Nsg26
Nssg27
(dp767
S'consultarTiposDatosAdicionalesResponse'
p768
g30
(g31
g32
(dp769
VarrayTiposDatosAdicionales
p770
(lp771
g99
asVevento
p772
g47
stRp773
(dp774
g49
I00
sg50
(lp775
g770
ag772
asbssg70
Vhttp://impl.service.wsmtxca.afip.gov.ar/service/consultarTiposDatosAdicionales
p776
sg72
(dp777
S'consultarTiposDatosAdicionalesRequest'
p778
g30
(g31
g32
(dp779
VauthRequest
p780
g82
stRp781
(dp782
g49
I00
sg50
(lp783
g780
asbssssS'location'
p784
Vhttps://fwshomo.afip.gov.ar/wsmtxca/services/MTXCAService
p785
sS'service_name'
p786
g6
sS'soap_uri'
p787
Vhttp://schemas.xmlsoap.org/wsdl/soap/
p788
sS'soap_ver'
p789
S'soap11'
p790
sS'transport'
p791
Vhttp://schemas.xmlsoap.org/soap/http
p792
sssssS'version'
p793
S'1.08b'
p794
sS'namespace'
p795
Vhttp://impl.service.wsmtxca.afip.gov.ar/service/
p796
sg8
V
s.